target datalayout = "e-m:e-p270:32:32-p271:32:32-p272:64:64-i64:64-i128:128-f80:128-n8:16:32:64-S128"
target triple = "x86_64-pc-linux-gnu"

%struct.URLGlob = type { [100 x %struct.URLPattern], i64, i64, ptr, i8, ptr, i64 }
%struct.URLPattern = type { i32, i32, %union.anon }
%union.anon = type { %struct.anon.1 }
%struct.anon.1 = type { i64, i64, i32, i64, i64 }
%struct.anon = type { ptr, i64, i32 }
%struct.anon.0 = type { i8, i8, i8, i32 }
%struct.dynbuf = type { ptr, i64, i64, i64 }

@.str.3 = private unnamed_addr constant [43 x i8] c"internal error: invalid pattern type (%d)\0A\00", align 1
@.str.5 = private unnamed_addr constant [6 x i8] c"%0*ld\00", align 1
@.str.6 = private unnamed_addr constant [1 x i8] zeroinitializer, align 1
@tool_stderr = external global ptr, align 8

; Function Attrs: nounwind uwtable
define dso_local i32 @glob_match_url(ptr noundef %0, ptr noundef %1, ptr noundef %2) #0 {
  %4 = alloca i32, align 4
  %5 = alloca ptr, align 8
  %6 = alloca ptr, align 8
  %7 = alloca ptr, align 8
  %8 = alloca [18 x i8], align 16
  %9 = alloca ptr, align 8
  %10 = alloca i64, align 8
  %11 = alloca %struct.dynbuf, align 8
  %12 = alloca ptr, align 8
  %13 = alloca i64, align 8
  %14 = alloca ptr, align 8
  %15 = alloca i64, align 8
  %16 = alloca i32, align 4
  store ptr %0, ptr %5, align 8, !tbaa !35
  store ptr %1, ptr %6, align 8, !tbaa !9
  store ptr %2, ptr %7, align 8, !tbaa !17
  call void @llvm.lifetime.start.p0(i64 18, ptr %8) #10
  call void @llvm.lifetime.start.p0(i64 8, ptr %9) #10
  store ptr @.str.6, ptr %9, align 8, !tbaa !9
  call void @llvm.lifetime.start.p0(i64 8, ptr %10) #10
  store i64 0, ptr %10, align 8, !tbaa !15
  call void @llvm.lifetime.start.p0(i64 32, ptr %11) #10
  %17 = load ptr, ptr %5, align 8, !tbaa !35
  store ptr null, ptr %17, align 8, !tbaa !9
  call void @curlx_dyn_init(ptr noundef %11, i64 noundef 10240)
  br label %18

18:                                               ; preds = %165, %3
  %19 = load ptr, ptr %6, align 8, !tbaa !9
  %20 = load i8, ptr %19, align 1, !tbaa !19
  %21 = icmp ne i8 %20, 0
  br i1 %21, label %22, label %166

22:                                               ; preds = %18
  %23 = load ptr, ptr %6, align 8, !tbaa !9
  %24 = load i8, ptr %23, align 1, !tbaa !19
  %25 = sext i8 %24 to i32
  %26 = icmp eq i32 %25, 35
  br i1 %26, label %27, label %156

27:                                               ; preds = %22
  %28 = load ptr, ptr %6, align 8, !tbaa !9
  %29 = getelementptr inbounds i8, ptr %28, i64 1
  %30 = load i8, ptr %29, align 1, !tbaa !19
  %31 = sext i8 %30 to i32
  %32 = icmp sge i32 %31, 48
  br i1 %32, label %33, label %156

33:                                               ; preds = %27
  %34 = load ptr, ptr %6, align 8, !tbaa !9
  %35 = getelementptr inbounds i8, ptr %34, i64 1
  %36 = load i8, ptr %35, align 1, !tbaa !19
  %37 = sext i8 %36 to i32
  %38 = icmp sle i32 %37, 57
  br i1 %38, label %39, label %156

39:                                               ; preds = %33
  call void @llvm.lifetime.start.p0(i64 8, ptr %12) #10
  %40 = load ptr, ptr %6, align 8, !tbaa !9
  store ptr %40, ptr %12, align 8, !tbaa !9
  call void @llvm.lifetime.start.p0(i64 8, ptr %13) #10
  %41 = load ptr, ptr %6, align 8, !tbaa !9
  %42 = getelementptr inbounds i8, ptr %41, i64 1
  %43 = call i64 @strtoul(ptr noundef %42, ptr noundef %6, i32 noundef 10) #10
  store i64 %43, ptr %13, align 8, !tbaa !15
  call void @llvm.lifetime.start.p0(i64 8, ptr %14) #10
  store ptr null, ptr %14, align 8, !tbaa !42
  %44 = load i64, ptr %13, align 8, !tbaa !15
  %45 = icmp ne i64 %44, 0
  br i1 %45, label %46, label %81

46:                                               ; preds = %39
  %47 = load i64, ptr %13, align 8, !tbaa !15
  %48 = load ptr, ptr %7, align 8, !tbaa !17
  %49 = getelementptr inbounds nuw %struct.URLGlob, ptr %48, i32 0, i32 1
  %50 = load i64, ptr %49, align 8, !tbaa !29
  %51 = icmp ult i64 %47, %50
  br i1 %51, label %52, label %81

52:                                               ; preds = %46
  call void @llvm.lifetime.start.p0(i64 8, ptr %15) #10
  %53 = load i64, ptr %13, align 8, !tbaa !15
  %54 = add i64 %53, -1
  store i64 %54, ptr %13, align 8, !tbaa !15
  store i64 0, ptr %15, align 8, !tbaa !15
  br label %55

55:                                               ; preds = %77, %52
  %56 = load i64, ptr %15, align 8, !tbaa !15
  %57 = load ptr, ptr %7, align 8, !tbaa !17
  %58 = getelementptr inbounds nuw %struct.URLGlob, ptr %57, i32 0, i32 1
  %59 = load i64, ptr %58, align 8, !tbaa !29
  %60 = icmp ult i64 %56, %59
  br i1 %60, label %61, label %80

61:                                               ; preds = %55
  %62 = load ptr, ptr %7, align 8, !tbaa !17
  %63 = getelementptr inbounds nuw %struct.URLGlob, ptr %62, i32 0, i32 0
  %64 = load i64, ptr %15, align 8, !tbaa !15
  %65 = getelementptr inbounds nuw [100 x %struct.URLPattern], ptr %63, i64 0, i64 %64
  %66 = getelementptr inbounds nuw %struct.URLPattern, ptr %65, i32 0, i32 1
  %67 = load i32, ptr %66, align 4, !tbaa !46
  %68 = load i64, ptr %13, align 8, !tbaa !15
  %69 = trunc i64 %68 to i32
  %70 = icmp eq i32 %67, %69
  br i1 %70, label %71, label %76

71:                                               ; preds = %61
  %72 = load ptr, ptr %7, align 8, !tbaa !17
  %73 = getelementptr inbounds nuw %struct.URLGlob, ptr %72, i32 0, i32 0
  %74 = load i64, ptr %15, align 8, !tbaa !15
  %75 = getelementptr inbounds nuw [100 x %struct.URLPattern], ptr %73, i64 0, i64 %74
  store ptr %75, ptr %14, align 8, !tbaa !42
  br label %80

76:                                               ; preds = %61
  br label %77

77:                                               ; preds = %76
  %78 = load i64, ptr %15, align 8, !tbaa !15
  %79 = add i64 %78, 1
  store i64 %79, ptr %15, align 8, !tbaa !15
  br label %55, !llvm.loop !47

80:                                               ; preds = %71, %55
  call void @llvm.lifetime.end.p0(i64 8, ptr %15) #10
  br label %81

81:                                               ; preds = %80, %46, %39
  %82 = load ptr, ptr %14, align 8, !tbaa !42
  %83 = icmp ne ptr %82, null
  br i1 %83, label %84, label %148

84:                                               ; preds = %81
  %85 = load ptr, ptr %14, align 8, !tbaa !42
  %86 = getelementptr inbounds nuw %struct.URLPattern, ptr %85, i32 0, i32 0
  %87 = load i32, ptr %86, align 8, !tbaa !31
  switch i32 %87, label %141 [
    i32 1, label %88
    i32 2, label %119
    i32 3, label %127
  ]

88:                                               ; preds = %84
  %89 = load ptr, ptr %14, align 8, !tbaa !42
  %90 = getelementptr inbounds nuw %struct.URLPattern, ptr %89, i32 0, i32 2
  %91 = getelementptr inbounds nuw %struct.anon, ptr %90, i32 0, i32 0
  %92 = load ptr, ptr %91, align 8, !tbaa !19
  %93 = icmp ne ptr %92, null
  br i1 %93, label %94, label %118

94:                                               ; preds = %88
  %95 = load ptr, ptr %14, align 8, !tbaa !42
  %96 = getelementptr inbounds nuw %struct.URLPattern, ptr %95, i32 0, i32 2
  %97 = getelementptr inbounds nuw %struct.anon, ptr %96, i32 0, i32 0
  %98 = load ptr, ptr %97, align 8, !tbaa !19
  %99 = load ptr, ptr %14, align 8, !tbaa !42
  %100 = getelementptr inbounds nuw %struct.URLPattern, ptr %99, i32 0, i32 2
  %101 = getelementptr inbounds nuw %struct.anon, ptr %100, i32 0, i32 2
  %102 = load i32, ptr %101, align 8, !tbaa !19
  %103 = sext i32 %102 to i64
  %104 = getelementptr inbounds ptr, ptr %98, i64 %103
  %105 = load ptr, ptr %104, align 8, !tbaa !9
  store ptr %105, ptr %9, align 8, !tbaa !9
  %106 = load ptr, ptr %14, align 8, !tbaa !42
  %107 = getelementptr inbounds nuw %struct.URLPattern, ptr %106, i32 0, i32 2
  %108 = getelementptr inbounds nuw %struct.anon, ptr %107, i32 0, i32 0
  %109 = load ptr, ptr %108, align 8, !tbaa !19
  %110 = load ptr, ptr %14, align 8, !tbaa !42
  %111 = getelementptr inbounds nuw %struct.URLPattern, ptr %110, i32 0, i32 2
  %112 = getelementptr inbounds nuw %struct.anon, ptr %111, i32 0, i32 2
  %113 = load i32, ptr %112, align 8, !tbaa !19
  %114 = sext i32 %113 to i64
  %115 = getelementptr inbounds ptr, ptr %109, i64 %114
  %116 = load ptr, ptr %115, align 8, !tbaa !9
  %117 = call i64 @strlen(ptr noundef %116) #11
  store i64 %117, ptr %10, align 8, !tbaa !15
  br label %118

118:                                              ; preds = %94, %88
  br label %147

119:                                              ; preds = %84
  %120 = load ptr, ptr %14, align 8, !tbaa !42
  %121 = getelementptr inbounds nuw %struct.URLPattern, ptr %120, i32 0, i32 2
  %122 = getelementptr inbounds nuw %struct.anon.0, ptr %121, i32 0, i32 2
  %123 = load i8, ptr %122, align 2, !tbaa !19
  %124 = getelementptr inbounds [18 x i8], ptr %8, i64 0, i64 0
  store i8 %123, ptr %124, align 16, !tbaa !19
  %125 = getelementptr inbounds [18 x i8], ptr %8, i64 0, i64 1
  store i8 0, ptr %125, align 1, !tbaa !19
  %126 = getelementptr inbounds [18 x i8], ptr %8, i64 0, i64 0
  store ptr %126, ptr %9, align 8, !tbaa !9
  store i64 1, ptr %10, align 8, !tbaa !15
  br label %147

127:                                              ; preds = %84
  %128 = getelementptr inbounds [18 x i8], ptr %8, i64 0, i64 0
  %129 = load ptr, ptr %14, align 8, !tbaa !42
  %130 = getelementptr inbounds nuw %struct.URLPattern, ptr %129, i32 0, i32 2
  %131 = getelementptr inbounds nuw %struct.anon.1, ptr %130, i32 0, i32 2
  %132 = load i32, ptr %131, align 8, !tbaa !19
  %133 = load ptr, ptr %14, align 8, !tbaa !42
  %134 = getelementptr inbounds nuw %struct.URLPattern, ptr %133, i32 0, i32 2
  %135 = getelementptr inbounds nuw %struct.anon.1, ptr %134, i32 0, i32 3
  %136 = load i64, ptr %135, align 8, !tbaa !19
  %137 = call i32 (ptr, i64, ptr, ...) @curl_msnprintf(ptr noundef %128, i64 noundef 18, ptr noundef @.str.5, i32 noundef %132, i64 noundef %136)
  %138 = getelementptr inbounds [18 x i8], ptr %8, i64 0, i64 0
  store ptr %138, ptr %9, align 8, !tbaa !9
  %139 = getelementptr inbounds [18 x i8], ptr %8, i64 0, i64 0
  %140 = call i64 @strlen(ptr noundef %139) #11
  store i64 %140, ptr %10, align 8, !tbaa !15
  br label %147

141:                                              ; preds = %84
  %142 = load ptr, ptr @tool_stderr, align 8, !tbaa !13
  %143 = load ptr, ptr %14, align 8, !tbaa !42
  %144 = getelementptr inbounds nuw %struct.URLPattern, ptr %143, i32 0, i32 0
  %145 = load i32, ptr %144, align 8, !tbaa !31
  %146 = call i32 (ptr, ptr, ...) @curl_mfprintf(ptr noundef %142, ptr noundef @.str.3, i32 noundef %145)
  call void @curlx_dyn_free(ptr noundef %11)
  store i32 2, ptr %4, align 4
  store i32 1, ptr %16, align 4
  br label %153

147:                                              ; preds = %127, %119, %118
  br label %152

148:                                              ; preds = %81
  %149 = load ptr, ptr %12, align 8, !tbaa !9
  store ptr %149, ptr %6, align 8, !tbaa !9
  %150 = load ptr, ptr %6, align 8, !tbaa !9
  %151 = getelementptr inbounds nuw i8, ptr %150, i32 1
  store ptr %151, ptr %6, align 8, !tbaa !9
  store ptr %150, ptr %9, align 8, !tbaa !9
  store i64 1, ptr %10, align 8, !tbaa !15
  br label %152

152:                                              ; preds = %148, %147
  store i32 0, ptr %16, align 4
  br label %153

153:                                              ; preds = %152, %141
  call void @llvm.lifetime.end.p0(i64 8, ptr %14) #10
  call void @llvm.lifetime.end.p0(i64 8, ptr %13) #10
  call void @llvm.lifetime.end.p0(i64 8, ptr %12) #10
  %154 = load i32, ptr %16, align 4
  switch i32 %154, label %173 [
    i32 0, label %155
  ]

155:                                              ; preds = %153
  br label %159

156:                                              ; preds = %33, %27, %22
  %157 = load ptr, ptr %6, align 8, !tbaa !9
  %158 = getelementptr inbounds nuw i8, ptr %157, i32 1
  store ptr %158, ptr %6, align 8, !tbaa !9
  store ptr %157, ptr %9, align 8, !tbaa !9
  store i64 1, ptr %10, align 8, !tbaa !15
  br label %159

159:                                              ; preds = %156, %155
  %160 = load ptr, ptr %9, align 8, !tbaa !9
  %161 = load i64, ptr %10, align 8, !tbaa !15
  %162 = call i32 @curlx_dyn_addn(ptr noundef %11, ptr noundef %160, i64 noundef %161)
  %163 = icmp ne i32 %162, 0
  br i1 %163, label %164, label %165

164:                                              ; preds = %159
  store i32 27, ptr %4, align 4
  store i32 1, ptr %16, align 4
  br label %173

165:                                              ; preds = %159
  br label %18, !llvm.loop !48

166:                                              ; preds = %18
  %167 = call i32 @curlx_dyn_addn(ptr noundef %11, ptr noundef @.str.6, i64 noundef 0)
  %168 = icmp ne i32 %167, 0
  br i1 %168, label %169, label %170

169:                                              ; preds = %166
  store i32 27, ptr %4, align 4
  store i32 1, ptr %16, align 4
  br label %173

170:                                              ; preds = %166
  %171 = call ptr @curlx_dyn_ptr(ptr noundef %11)
  %172 = load ptr, ptr %5, align 8, !tbaa !35
  store ptr %171, ptr %172, align 8, !tbaa !9
  store i32 0, ptr %4, align 4
  store i32 1, ptr %16, align 4
  br label %173

173:                                              ; preds = %170, %169, %164, %153
  call void @llvm.lifetime.end.p0(i64 32, ptr %11) #10
  call void @llvm.lifetime.end.p0(i64 8, ptr %10) #10
  call void @llvm.lifetime.end.p0(i64 8, ptr %9) #10
  call void @llvm.lifetime.end.p0(i64 18, ptr %8) #10
  %174 = load i32, ptr %4, align 4
  ret i32 %174
}