; Function Attrs: nounwind uwtable
define dso_local range(i32 0, 28) i32 @glob_match_url(ptr noundef writeonly captures(none) initializes((0, 8)) %0, ptr noundef %1, ptr noundef readonly captures(none) %2) local_unnamed_addr #0 {
  %4 = alloca ptr, align 8
  %5 = alloca [18 x i8], align 16
  %6 = alloca %struct.dynbuf, align 8
  store ptr %1, ptr %4, align 8, !tbaa !24
  call void @llvm.lifetime.start.p0(i64 18, ptr nonnull %5) #13
  call void @llvm.lifetime.start.p0(i64 32, ptr nonnull %6) #13
  store ptr null, ptr %0, align 8, !tbaa !24
  call void @curlx_dyn_init(ptr noundef nonnull %6, i64 noundef 10240) #13
  %7 = getelementptr inbounds nuw i8, ptr %2, i64 4800
  %8 = getelementptr inbounds nuw i8, ptr %5, i64 1
  br label %9

9:                                                ; preds = %.thread53, %3
  %.037 = phi ptr [ @.str.6, %3 ], [ %.340, %.thread53 ]
  %.033 = phi i64 [ 0, %3 ], [ %.336, %.thread53 ]
  %10 = load ptr, ptr %4, align 8, !tbaa !24
  %11 = load i8, ptr %10, align 1, !tbaa !9
  switch i8 %11, label %55 [
    i8 0, label %58
    i8 35, label %12
  ]

12:                                               ; preds = %9
  %13 = getelementptr inbounds nuw i8, ptr %10, i64 1
  %14 = load i8, ptr %13, align 1, !tbaa !9
  %15 = add i8 %14, -48
  %or.cond = icmp ult i8 %15, 10
  br i1 %or.cond, label %16, label %55

16:                                               ; preds = %12
  %17 = call i64 @strtoul(ptr noundef nonnull %13, ptr noundef nonnull %4, i32 noundef 10) #13
  %.not46 = icmp eq i64 %17, 0
  br i1 %.not46, label %.loopexit, label %18

18:                                               ; preds = %16
  %19 = load i64, ptr %7, align 8, !tbaa !17
  %20 = icmp ult i64 %17, %19
  br i1 %20, label %.preheader, label %.loopexit

.preheader:                                       ; preds = %18
  %21 = trunc i64 %17 to i32
  %22 = add i32 %21, -1
  br label %25

23:                                               ; preds = %25
  %24 = add nuw i64 %.02959, 1
  %exitcond.not = icmp eq i64 %24, %19
  br i1 %exitcond.not, label %.loopexit, label %25, !llvm.loop !36

25:                                               ; preds = %.preheader, %23
  %.02959 = phi i64 [ 0, %.preheader ], [ %24, %23 ]
  %26 = getelementptr inbounds nuw [100 x %struct.URLPattern], ptr %2, i64 0, i64 %.02959
  %27 = getelementptr inbounds nuw i8, ptr %26, i64 4
  %28 = load i32, ptr %27, align 4, !tbaa !21
  %29 = icmp eq i32 %28, %22
  br i1 %29, label %30, label %23

30:                                               ; preds = %25
  %31 = load i32, ptr %26, align 8, !tbaa !18
  switch i32 %31, label %52 [
    i32 1, label %32
    i32 2, label %42
    i32 3, label %45
  ]

32:                                               ; preds = %30
  %33 = getelementptr inbounds nuw i8, ptr %26, i64 8
  %34 = load ptr, ptr %33, align 8, !tbaa !9
  %.not48 = icmp eq ptr %34, null
  br i1 %.not48, label %.thread53, label %35

35:                                               ; preds = %32
  %36 = getelementptr inbounds nuw i8, ptr %26, i64 24
  %37 = load i32, ptr %36, align 8, !tbaa !9
  %38 = sext i32 %37 to i64
  %39 = getelementptr inbounds ptr, ptr %34, i64 %38
  %40 = load ptr, ptr %39, align 8, !tbaa !24
  %41 = call i64 @strlen(ptr noundef nonnull dereferenceable(1) %40) #14
  br label %.thread53

42:                                               ; preds = %30
  %43 = getelementptr inbounds nuw i8, ptr %26, i64 10
  %44 = load i8, ptr %43, align 2, !tbaa !9
  store i8 %44, ptr %5, align 16, !tbaa !9
  store i8 0, ptr %8, align 1, !tbaa !9
  br label %.thread53

45:                                               ; preds = %30
  %46 = getelementptr inbounds nuw i8, ptr %26, i64 24
  %47 = load i32, ptr %46, align 8, !tbaa !9
  %48 = getelementptr inbounds nuw i8, ptr %26, i64 32
  %49 = load i64, ptr %48, align 8, !tbaa !9
  %50 = call i32 (ptr, i64, ptr, ...) @curl_msnprintf(ptr noundef nonnull %5, i64 noundef 18, ptr noundef nonnull @.str.5, i32 noundef %47, i64 noundef %49) #13
  %51 = call i64 @strlen(ptr noundef nonnull dereferenceable(1) %5) #14
  br label %.thread53

.loopexit:                                        ; preds = %23, %18, %16
  store ptr %13, ptr %4, align 8, !tbaa !24
  br label %.thread53

52:                                               ; preds = %30
  %53 = load ptr, ptr @tool_stderr, align 8, !tbaa !37
  %54 = call i32 (ptr, ptr, ...) @curl_mfprintf(ptr noundef %53, ptr noundef nonnull @.str.3, i32 noundef %31) #13
  call void @curlx_dyn_free(ptr noundef nonnull %6) #13
  br label %.loopexit57

55:                                               ; preds = %9, %12
  %56 = getelementptr inbounds nuw i8, ptr %10, i64 1
  store ptr %56, ptr %4, align 8, !tbaa !24
  br label %.thread53

.thread53:                                        ; preds = %.loopexit, %32, %35, %45, %42, %55
  %.340 = phi ptr [ %10, %55 ], [ %10, %.loopexit ], [ %.037, %32 ], [ %40, %35 ], [ %5, %42 ], [ %5, %45 ]
  %.336 = phi i64 [ 1, %55 ], [ 1, %.loopexit ], [ %.033, %32 ], [ %41, %35 ], [ 1, %42 ], [ %51, %45 ]
  %57 = call i32 @curlx_dyn_addn(ptr noundef nonnull %6, ptr noundef %.340, i64 noundef %.336) #13
  %.not49 = icmp eq i32 %57, 0
  br i1 %.not49, label %9, label %.loopexit57, !llvm.loop !39

58:                                               ; preds = %9
  %59 = call i32 @curlx_dyn_addn(ptr noundef nonnull %6, ptr noundef nonnull @.str.6, i64 noundef 0) #13
  %.not45 = icmp eq i32 %59, 0
  br i1 %.not45, label %60, label %.loopexit57

60:                                               ; preds = %58
  %61 = call ptr @curlx_dyn_ptr(ptr noundef nonnull %6) #13
  store ptr %61, ptr %0, align 8, !tbaa !24
  br label %.loopexit57

.loopexit57:                                      ; preds = %.thread53, %52, %58, %60
  %.2 = phi i32 [ 2, %52 ], [ 0, %60 ], [ 27, %58 ], [ 27, %.thread53 ]
  call void @llvm.lifetime.end.p0(i64 32, ptr nonnull %6) #13
  call void @llvm.lifetime.end.p0(i64 18, ptr nonnull %5) #13
  ret i32 %.2
}